target datalayout = "e-m:e-p270:32:32-p271:32:32-p272:64:64-i64:64-i128:128-f80:128-n8:16:32:64-S128"
target triple = "x86_64-pc-linux-gnu"

%struct.point_t = type { float, float }
%struct.box_t = type { %struct.point_t, float, float, i32, [12 x i8], [4 x float], [4 x float] }

@d50_inv = internal constant [4 x float] [float 0x3FF09814C0000000, float 1.000000e+00, float 0x3FF3657360000000, float 0.000000e+00], align 16
@dt_XYZ_to_Lab.coeff = internal constant [4 x float] [float 1.160000e+02, float 5.000000e+02, float -2.000000e+02, float 0.000000e+00], align 16
@dt_XYZ_to_Lab.offset = internal constant [4 x float] [float 1.600000e+01, float 0.000000e+00, float 0.000000e+00, float 0.000000e+00], align 16
@dt_XYZ_to_Lab.zero = internal constant [4 x float] zeroinitializer, align 16

; Function Attrs: inlinehint nounwind uwtable
define internal float @cbrta_halleyf(float noundef %0, float noundef %1) #12 {
  %3 = alloca float, align 4
  %4 = alloca float, align 4
  %5 = alloca float, align 4
  %6 = alloca float, align 4
  store float %0, ptr %3, align 4, !tbaa !60
  store float %1, ptr %4, align 4, !tbaa !60
  call void @llvm.lifetime.start.p0(i64 4, ptr %5) #15
  %7 = load float, ptr %3, align 4, !tbaa !60
  %8 = load float, ptr %3, align 4, !tbaa !60
  %9 = fmul reassoc nsz arcp contract afn float %7, %8
  %10 = load float, ptr %3, align 4, !tbaa !60
  %11 = fmul reassoc nsz arcp contract afn float %9, %10
  store float %11, ptr %5, align 4, !tbaa !60
  call void @llvm.lifetime.start.p0(i64 4, ptr %6) #15
  %12 = load float, ptr %3, align 4, !tbaa !60
  %13 = load float, ptr %5, align 4, !tbaa !60
  %14 = load float, ptr %4, align 4, !tbaa !60
  %15 = fadd reassoc nsz arcp contract afn float %13, %14
  %16 = load float, ptr %4, align 4, !tbaa !60
  %17 = fadd reassoc nsz arcp contract afn float %15, %16
  %18 = fmul reassoc nsz arcp contract afn float %12, %17
  %19 = load float, ptr %5, align 4, !tbaa !60
  %20 = load float, ptr %5, align 4, !tbaa !60
  %21 = fadd reassoc nsz arcp contract afn float %19, %20
  %22 = load float, ptr %4, align 4, !tbaa !60
  %23 = fadd reassoc nsz arcp contract afn float %21, %22
  %24 = fdiv reassoc nsz arcp contract afn float %18, %23
  store float %24, ptr %6, align 4, !tbaa !60
  %25 = load float, ptr %6, align 4, !tbaa !60
  call void @llvm.lifetime.end.p0(i64 4, ptr %6) #15
  call void @llvm.lifetime.end.p0(i64 4, ptr %5) #15
  ret float %25
}

; Function Attrs: inlinehint nounwind uwtable
define internal float @cbrt_5f(float noundef %0) #12 {
  %2 = alloca float, align 4
  %3 = alloca ptr, align 8
  store float %0, ptr %2, align 4, !tbaa !60
  call void @llvm.lifetime.start.p0(i64 8, ptr %3) #15
  store ptr %2, ptr %3, align 8, !tbaa !55
  %4 = load ptr, ptr %3, align 8, !tbaa !55
  %5 = load i32, ptr %4, align 4, !tbaa !7
  %6 = udiv i32 %5, 3
  %7 = add i32 %6, 709921077
  %8 = load ptr, ptr %3, align 8, !tbaa !55
  store i32 %7, ptr %8, align 4, !tbaa !7
  %9 = load float, ptr %2, align 4, !tbaa !60
  call void @llvm.lifetime.end.p0(i64 8, ptr %3) #15
  ret float %9
}

; Function Attrs: inlinehint nounwind uwtable
define internal float @lab_f(float noundef %0) #12 {
  %2 = alloca float, align 4
  %3 = alloca float, align 4
  %4 = alloca float, align 4
  store float %0, ptr %2, align 4, !tbaa !60
  call void @llvm.lifetime.start.p0(i64 4, ptr %3) #15
  store float 0x3F822354E0000000, ptr %3, align 4, !tbaa !60
  call void @llvm.lifetime.start.p0(i64 4, ptr %4) #15
  store float 0x408C3A5EE0000000, ptr %4, align 4, !tbaa !60
  %5 = load float, ptr %2, align 4, !tbaa !60
  %6 = fcmp reassoc nsz arcp contract afn ogt float %5, 0x3F822354E0000000
  br i1 %6, label %7, label %12

7:                                                ; preds = %1
  %8 = load float, ptr %2, align 4, !tbaa !60
  %9 = call reassoc nsz arcp contract afn float @cbrt_5f(float noundef %8)
  %10 = load float, ptr %2, align 4, !tbaa !60
  %11 = call reassoc nsz arcp contract afn float @cbrta_halleyf(float noundef %9, float noundef %10)
  br label %17

12:                                               ; preds = %1
  %13 = load float, ptr %2, align 4, !tbaa !60
  %14 = fmul reassoc nsz arcp contract afn float 0x408C3A5EE0000000, %13
  %15 = fadd reassoc nsz arcp contract afn float %14, 1.600000e+01
  %16 = fdiv reassoc nsz arcp contract afn float %15, 1.160000e+02
  br label %17

17:                                               ; preds = %12, %7
  %18 = phi reassoc nsz arcp contract afn float [ %11, %7 ], [ %16, %12 ]
  call void @llvm.lifetime.end.p0(i64 4, ptr %4) #15
  call void @llvm.lifetime.end.p0(i64 4, ptr %3) #15
  ret float %18
}

; Function Attrs: inlinehint nounwind uwtable
define internal void @dt_XYZ_to_Lab(ptr noundef %0, ptr noundef %1) #12 {
  %3 = alloca ptr, align 8
  %4 = alloca ptr, align 8
  %5 = alloca [4 x float], align 16
  %6 = alloca i64, align 8
  %7 = alloca [4 x float], align 16
  %8 = alloca [4 x float], align 16
  %9 = alloca i64, align 8
  store ptr %0, ptr %3, align 8, !tbaa !63
  store ptr %1, ptr %4, align 8, !tbaa !63
  call void @llvm.lifetime.start.p0(i64 16, ptr %5) #15
  call void @llvm.lifetime.start.p0(i64 8, ptr %6) #15
  store i64 0, ptr %6, align 8, !tbaa !73
  br label %10

10:                                               ; preds = %26, %2
  %11 = load i64, ptr %6, align 8, !tbaa !73
  %12 = icmp ult i64 %11, 4
  br i1 %12, label %14, label %13

13:                                               ; preds = %10
  call void @llvm.lifetime.end.p0(i64 8, ptr %6) #15
  br label %29

14:                                               ; preds = %10
  %15 = load ptr, ptr %3, align 8, !tbaa !63
  %16 = load i64, ptr %6, align 8, !tbaa !73
  %17 = getelementptr inbounds nuw float, ptr %15, i64 %16
  %18 = load float, ptr %17, align 4, !tbaa !60
  %19 = load i64, ptr %6, align 8, !tbaa !73
  %20 = getelementptr inbounds nuw [4 x float], ptr @d50_inv, i64 0, i64 %19
  %21 = load float, ptr %20, align 4, !tbaa !60
  %22 = fmul reassoc nsz arcp contract afn float %18, %21
  %23 = call reassoc nsz arcp contract afn float @lab_f(float noundef %22)
  %24 = load i64, ptr %6, align 8, !tbaa !73
  %25 = getelementptr inbounds nuw [4 x float], ptr %5, i64 0, i64 %24
  store float %23, ptr %25, align 4, !tbaa !60
  br label %26

26:                                               ; preds = %14
  %27 = load i64, ptr %6, align 8, !tbaa !73
  %28 = add i64 %27, 1
  store i64 %28, ptr %6, align 8, !tbaa !73
  br label %10

29:                                               ; preds = %13
  call void @llvm.lifetime.start.p0(i64 16, ptr %7) #15
  %30 = getelementptr inbounds [4 x float], ptr %5, i64 0, i64 1
  %31 = load float, ptr %30, align 4, !tbaa !60
  store float %31, ptr %7, align 4, !tbaa !60
  %32 = getelementptr inbounds float, ptr %7, i64 1
  %33 = getelementptr inbounds [4 x float], ptr %5, i64 0, i64 0
  %34 = load float, ptr %33, align 16, !tbaa !60
  store float %34, ptr %32, align 4, !tbaa !60
  %35 = getelementptr inbounds float, ptr %7, i64 2
  %36 = getelementptr inbounds [4 x float], ptr %5, i64 0, i64 2
  %37 = load float, ptr %36, align 8, !tbaa !60
  store float %37, ptr %35, align 4, !tbaa !60
  %38 = getelementptr inbounds float, ptr %7, i64 3
  %39 = getelementptr inbounds [4 x float], ptr %5, i64 0, i64 3
  %40 = load float, ptr %39, align 4, !tbaa !60
  store float %40, ptr %38, align 4, !tbaa !60
  call void @llvm.lifetime.start.p0(i64 16, ptr %8) #15
  %41 = load float, ptr @dt_XYZ_to_Lab.zero, align 16, !tbaa !60
  store float %41, ptr %8, align 4, !tbaa !60
  %42 = getelementptr inbounds float, ptr %8, i64 1
  %43 = getelementptr inbounds [4 x float], ptr %5, i64 0, i64 1
  %44 = load float, ptr %43, align 4, !tbaa !60
  store float %44, ptr %42, align 4, !tbaa !60
  %45 = getelementptr inbounds float, ptr %8, i64 2
  %46 = getelementptr inbounds [4 x float], ptr %5, i64 0, i64 1
  %47 = load float, ptr %46, align 4, !tbaa !60
  store float %47, ptr %45, align 4, !tbaa !60
  %48 = getelementptr inbounds float, ptr %8, i64 3
  %49 = load float, ptr @dt_XYZ_to_Lab.zero, align 16, !tbaa !60
  store float %49, ptr %48, align 4, !tbaa !60
  call void @llvm.lifetime.start.p0(i64 8, ptr %9) #15
  store i64 0, ptr %9, align 8, !tbaa !73
  br label %50

50:                                               ; preds = %73, %29
  %51 = load i64, ptr %9, align 8, !tbaa !73
  %52 = icmp ult i64 %51, 4
  br i1 %52, label %54, label %53

53:                                               ; preds = %50
  call void @llvm.lifetime.end.p0(i64 8, ptr %9) #15
  br label %76

54:                                               ; preds = %50
  %55 = load i64, ptr %9, align 8, !tbaa !73
  %56 = getelementptr inbounds nuw [4 x float], ptr @dt_XYZ_to_Lab.coeff, i64 0, i64 %55
  %57 = load float, ptr %56, align 4, !tbaa !60
  %58 = load i64, ptr %9, align 8, !tbaa !73
  %59 = getelementptr inbounds nuw [4 x float], ptr %7, i64 0, i64 %58
  %60 = load float, ptr %59, align 4, !tbaa !60
  %61 = load i64, ptr %9, align 8, !tbaa !73
  %62 = getelementptr inbounds nuw [4 x float], ptr %8, i64 0, i64 %61
  %63 = load float, ptr %62, align 4, !tbaa !60
  %64 = fsub reassoc nsz arcp contract afn float %60, %63
  %65 = fmul reassoc nsz arcp contract afn float %57, %64
  %66 = load i64, ptr %9, align 8, !tbaa !73
  %67 = getelementptr inbounds nuw [4 x float], ptr @dt_XYZ_to_Lab.offset, i64 0, i64 %66
  %68 = load float, ptr %67, align 4, !tbaa !60
  %69 = fsub reassoc nsz arcp contract afn float %65, %68
  %70 = load ptr, ptr %4, align 8, !tbaa !63
  %71 = load i64, ptr %9, align 8, !tbaa !73
  %72 = getelementptr inbounds nuw float, ptr %70, i64 %71
  store float %69, ptr %72, align 4, !tbaa !60
  br label %73

73:                                               ; preds = %54
  %74 = load i64, ptr %9, align 8, !tbaa !73
  %75 = add i64 %74, 1
  store i64 %75, ptr %9, align 8, !tbaa !73
  br label %50

76:                                               ; preds = %53
  call void @llvm.lifetime.end.p0(i64 16, ptr %8) #15
  call void @llvm.lifetime.end.p0(i64 16, ptr %7) #15
  call void @llvm.lifetime.end.p0(i64 16, ptr %5) #15
  ret void
}

; Function Attrs: nounwind uwtable
define internal void @get_Lab_from_box(ptr noundef %0, ptr noundef %1) #0 {
  %3 = alloca ptr, align 8
  %4 = alloca ptr, align 8
  %5 = alloca [4 x float], align 16
  %6 = alloca i64, align 8
  %7 = alloca i64, align 8
  store ptr %0, ptr %3, align 8, !tbaa !125
  store ptr %1, ptr %4, align 8, !tbaa !63
  %8 = load ptr, ptr %3, align 8, !tbaa !125
  %9 = getelementptr inbounds nuw %struct.box_t, ptr %8, i32 0, i32 3
  %10 = load i32, ptr %9, align 16, !tbaa !140
  switch i32 %10, label %51 [
    i32 5, label %11
    i32 6, label %33
  ]

11:                                               ; preds = %2
  call void @llvm.lifetime.start.p0(i64 16, ptr %5) #15
  call void @llvm.lifetime.start.p0(i64 8, ptr %6) #15
  store i64 0, ptr %6, align 8, !tbaa !73
  br label %12

12:                                               ; preds = %27, %11
  %13 = load i64, ptr %6, align 8, !tbaa !73
  %14 = icmp ult i64 %13, 4
  br i1 %14, label %16, label %15

15:                                               ; preds = %12
  call void @llvm.lifetime.end.p0(i64 8, ptr %6) #15
  br label %30

16:                                               ; preds = %12
  %17 = load ptr, ptr %3, align 8, !tbaa !125
  %18 = getelementptr inbounds nuw %struct.box_t, ptr %17, i32 0, i32 5
  %19 = load i64, ptr %6, align 8, !tbaa !73
  %20 = getelementptr inbounds nuw [4 x float], ptr %18, i64 0, i64 %19
  %21 = load float, ptr %20, align 4, !tbaa !60
  %22 = fpext reassoc nsz arcp contract afn float %21 to double
  %23 = fmul reassoc nsz arcp contract afn double %22, 1.000000e-02
  %24 = fptrunc reassoc nsz arcp contract afn double %23 to float
  %25 = load i64, ptr %6, align 8, !tbaa !73
  %26 = getelementptr inbounds nuw [4 x float], ptr %5, i64 0, i64 %25
  store float %24, ptr %26, align 4, !tbaa !60
  br label %27

27:                                               ; preds = %16
  %28 = load i64, ptr %6, align 8, !tbaa !73
  %29 = add i64 %28, 1
  store i64 %29, ptr %6, align 8, !tbaa !73
  br label %12

30:                                               ; preds = %15
  %31 = getelementptr inbounds [4 x float], ptr %5, i64 0, i64 0
  %32 = load ptr, ptr %4, align 8, !tbaa !63
  call void @dt_XYZ_to_Lab(ptr noundef %31, ptr noundef %32)
  call void @llvm.lifetime.end.p0(i64 16, ptr %5) #15
  br label %52

33:                                               ; preds = %2
  call void @llvm.lifetime.start.p0(i64 8, ptr %7) #15
  store i64 0, ptr %7, align 8, !tbaa !73
  br label %34

34:                                               ; preds = %47, %33
  %35 = load i64, ptr %7, align 8, !tbaa !73
  %36 = icmp ult i64 %35, 4
  br i1 %36, label %38, label %37

37:                                               ; preds = %34
  call void @llvm.lifetime.end.p0(i64 8, ptr %7) #15
  br label %50

38:                                               ; preds = %34
  %39 = load ptr, ptr %3, align 8, !tbaa !125
  %40 = getelementptr inbounds nuw %struct.box_t, ptr %39, i32 0, i32 5
  %41 = load i64, ptr %7, align 8, !tbaa !73
  %42 = getelementptr inbounds nuw [4 x float], ptr %40, i64 0, i64 %41
  %43 = load float, ptr %42, align 4, !tbaa !60
  %44 = load ptr, ptr %4, align 8, !tbaa !63
  %45 = load i64, ptr %7, align 8, !tbaa !73
  %46 = getelementptr inbounds nuw float, ptr %44, i64 %45
  store float %43, ptr %46, align 4, !tbaa !60
  br label %47

47:                                               ; preds = %38
  %48 = load i64, ptr %7, align 8, !tbaa !73
  %49 = add i64 %48, 1
  store i64 %49, ptr %7, align 8, !tbaa !73
  br label %34

50:                                               ; preds = %37
  br label %52

51:                                               ; preds = %2
  br label %52

52:                                               ; preds = %51, %50, %30
  ret void
}