; Function Attrs: nofree norecurse nosync nounwind memory(argmem: readwrite) uwtable
define internal fastcc void @get_Lab_from_box(ptr noundef nonnull readonly captures(none) %0, ptr noundef nonnull writeonly captures(none) %1) unnamed_addr #19 {
  %3 = alloca [4 x float], align 16
  %4 = alloca [4 x float], align 16
  %5 = alloca [4 x float], align 16
  %6 = alloca [4 x float], align 16
  %7 = getelementptr inbounds nuw i8, ptr %0, i64 16
  %8 = load i32, ptr %7, align 16, !tbaa !106
  switch i32 %8, label %.loopexit [
    i32 5, label %10
    i32 6, label %.preheader
  ]

.preheader:                                       ; preds = %2
  %9 = getelementptr inbounds nuw i8, ptr %0, i64 32
  br label %73

10:                                               ; preds = %2
  call void @llvm.lifetime.start.p0(i64 16, ptr nonnull %6) #24
  %11 = getelementptr inbounds nuw i8, ptr %0, i64 32
  br label %65

12:                                               ; preds = %65
  call void @llvm.lifetime.start.p0(i64 16, ptr nonnull %3) #24
  br label %27

13:                                               ; preds = %lab_f.exit.i
  call void @llvm.lifetime.start.p0(i64 16, ptr nonnull %4) #24
  %14 = getelementptr inbounds nuw i8, ptr %3, i64 4
  %15 = load float, ptr %14, align 4, !tbaa !67
  store float %15, ptr %4, align 16, !tbaa !67
  %16 = getelementptr inbounds nuw i8, ptr %4, i64 4
  %17 = load float, ptr %3, align 16, !tbaa !67
  store float %17, ptr %16, align 4, !tbaa !67
  %18 = getelementptr inbounds nuw i8, ptr %4, i64 8
  %19 = getelementptr inbounds nuw i8, ptr %3, i64 8
  %20 = load float, ptr %19, align 8, !tbaa !67
  store float %20, ptr %18, align 8, !tbaa !67
  %21 = getelementptr inbounds nuw i8, ptr %4, i64 12
  %22 = getelementptr inbounds nuw i8, ptr %3, i64 12
  %23 = load float, ptr %22, align 4, !tbaa !67
  store float %23, ptr %21, align 4, !tbaa !67
  call void @llvm.lifetime.start.p0(i64 16, ptr nonnull %5) #24
  store float 0.000000e+00, ptr %5, align 16, !tbaa !67
  %24 = getelementptr inbounds nuw i8, ptr %5, i64 4
  store float %15, ptr %24, align 4, !tbaa !67
  %25 = getelementptr inbounds nuw i8, ptr %5, i64 8
  store float %15, ptr %25, align 8, !tbaa !67
  %26 = getelementptr inbounds nuw i8, ptr %5, i64 12
  store float 0.000000e+00, ptr %26, align 4, !tbaa !67
  br label %51

27:                                               ; preds = %lab_f.exit.i, %12
  %.01314.i = phi i64 [ 0, %12 ], [ %50, %lab_f.exit.i ]
  %28 = getelementptr inbounds nuw float, ptr %6, i64 %.01314.i
  %29 = load float, ptr %28, align 4, !tbaa !67
  %30 = getelementptr inbounds nuw [4 x float], ptr @d50_inv, i64 0, i64 %.01314.i
  %31 = load float, ptr %30, align 4, !tbaa !67
  %32 = fmul reassoc nsz arcp contract afn float %31, %29
  %33 = fcmp reassoc nsz arcp contract afn ogt float %32, 0x3F822354E0000000
  br i1 %33, label %34, label %45

34:                                               ; preds = %27
  %35 = bitcast float %32 to i32
  %36 = udiv i32 %35, 3
  %37 = add nuw nsw i32 %36, 709921077
  %38 = bitcast i32 %37 to float
  %39 = fmul reassoc nsz arcp contract afn float %38, %38
  %40 = fmul reassoc nsz arcp contract afn float %39, %38
  %factor.i.i.i = fmul reassoc nsz arcp contract afn float %32, 2.000000e+00
  %41 = fadd reassoc nsz arcp contract afn float %40, %factor.i.i.i
  %42 = fmul reassoc nsz arcp contract afn float %41, %38
  %factor11.i.i.i = fmul reassoc nsz arcp contract afn float %40, 2.000000e+00
  %43 = fadd reassoc nsz arcp contract afn float %factor11.i.i.i, %32
  %44 = fdiv reassoc nsz arcp contract afn float %42, %43
  br label %lab_f.exit.i

45:                                               ; preds = %27
  %46 = fmul reassoc nsz arcp contract afn float %32, 0x401F25ED20000000
  %47 = fadd reassoc nsz arcp contract afn float %46, 0x3FC1A7B960000000
  br label %lab_f.exit.i

lab_f.exit.i:                                     ; preds = %45, %34
  %48 = phi reassoc nsz arcp contract afn float [ %44, %34 ], [ %47, %45 ]
  %49 = getelementptr inbounds nuw [4 x float], ptr %3, i64 0, i64 %.01314.i
  store float %48, ptr %49, align 4, !tbaa !67
  %50 = add nuw nsw i64 %.01314.i, 1
  %exitcond.not.i = icmp eq i64 %50, 4
  br i1 %exitcond.not.i, label %13, label %27

51:                                               ; preds = %51, %13
  %.015.i = phi i64 [ 0, %13 ], [ %64, %51 ]
  %52 = getelementptr inbounds nuw [4 x float], ptr @dt_XYZ_to_Lab.coeff, i64 0, i64 %.015.i
  %53 = load float, ptr %52, align 4, !tbaa !67
  %54 = getelementptr inbounds nuw [4 x float], ptr %4, i64 0, i64 %.015.i
  %55 = load float, ptr %54, align 4, !tbaa !67
  %56 = getelementptr inbounds nuw [4 x float], ptr %5, i64 0, i64 %.015.i
  %57 = load float, ptr %56, align 4, !tbaa !67
  %58 = fsub reassoc nsz arcp contract afn float %55, %57
  %59 = fmul reassoc nsz arcp contract afn float %58, %53
  %60 = getelementptr inbounds nuw [4 x float], ptr @dt_XYZ_to_Lab.offset, i64 0, i64 %.015.i
  %61 = load float, ptr %60, align 4, !tbaa !67
  %62 = fsub reassoc nsz arcp contract afn float %59, %61
  %63 = getelementptr inbounds nuw float, ptr %1, i64 %.015.i
  store float %62, ptr %63, align 4, !tbaa !67
  %64 = add nuw nsw i64 %.015.i, 1
  %exitcond16.not.i = icmp eq i64 %64, 4
  br i1 %exitcond16.not.i, label %dt_XYZ_to_Lab.exit, label %51

dt_XYZ_to_Lab.exit:                               ; preds = %51
  call void @llvm.lifetime.end.p0(i64 16, ptr nonnull %5) #24
  call void @llvm.lifetime.end.p0(i64 16, ptr nonnull %4) #24
  call void @llvm.lifetime.end.p0(i64 16, ptr nonnull %3) #24
  call void @llvm.lifetime.end.p0(i64 16, ptr nonnull %6) #24
  br label %.loopexit

65:                                               ; preds = %10, %65
  %.01214 = phi i64 [ 0, %10 ], [ %72, %65 ]
  %66 = getelementptr inbounds nuw [4 x float], ptr %11, i64 0, i64 %.01214
  %67 = load float, ptr %66, align 4, !tbaa !67
  %68 = fpext reassoc nsz arcp contract afn float %67 to double
  %69 = fmul reassoc nsz arcp contract afn double %68, 1.000000e-02
  %70 = fptrunc reassoc nsz arcp contract afn double %69 to float
  %71 = getelementptr inbounds nuw [4 x float], ptr %6, i64 0, i64 %.01214
  store float %70, ptr %71, align 4, !tbaa !67
  %72 = add nuw nsw i64 %.01214, 1
  %exitcond15.not = icmp eq i64 %72, 4
  br i1 %exitcond15.not, label %12, label %65

73:                                               ; preds = %.preheader, %73
  %.013 = phi i64 [ 0, %.preheader ], [ %77, %73 ]
  %74 = getelementptr inbounds nuw [4 x float], ptr %9, i64 0, i64 %.013
  %75 = load float, ptr %74, align 4, !tbaa !67
  %76 = getelementptr inbounds nuw float, ptr %1, i64 %.013
  store float %75, ptr %76, align 4, !tbaa !67
  %77 = add nuw nsw i64 %.013, 1
  %exitcond.not = icmp eq i64 %77, 4
  br i1 %exitcond.not, label %.loopexit, label %73

.loopexit:                                        ; preds = %73, %2, %dt_XYZ_to_Lab.exit
  ret void
}